target datalayout = "e-m:e-p270:32:32-p271:32:32-p272:64:64-i64:64-i128:128-f80:128-n8:16:32:64-S128"
target triple = "x86_64-pc-linux-gnu"

%struct.AVFilterContext = type { ptr, ptr, ptr, ptr, ptr, i32, ptr, ptr, i32, ptr, ptr, i32, i32, ptr, ptr, ptr, ptr, i32, ptr, i32, i32 }
%struct.AudioSurroundContext = type { ptr, %struct.AVChannelLayout, %struct.AVChannelLayout, float, float, [9 x float], [9 x float], i32, float, float, float, i32, i32, float, float, float, float, [9 x float], [9 x float], ptr, ptr, i32, i32, i32, i32, float, float, i32, i32, ptr, ptr, ptr, ptr, ptr, ptr, ptr, ptr, ptr, ptr, ptr, ptr, ptr, ptr, ptr, ptr, ptr, ptr, ptr, i32, i32, ptr, ptr, ptr, ptr, ptr, ptr, ptr, ptr, ptr }
%struct.AVChannelLayout = type { i32, i32, %union.anon.1, ptr }
%union.anon.1 = type { i64 }
%struct.AVRational = type { i32, i32 }
%struct.AVFrame = type { [8 x ptr], [8 x i32], ptr, i32, i32, i32, i32, i32, %struct.AVRational, i64, i64, %struct.AVRational, i32, ptr, i32, i32, [8 x ptr], ptr, i32, ptr, i32, i32, i32, i32, i32, i32, i32, i64, ptr, i32, ptr, ptr, i64, i64, i64, i64, ptr, %struct.AVChannelLayout, i64 }

; Function Attrs: nounwind uwtable
define internal i32 @ifft_channel(ptr noundef %0, ptr noundef %1, i32 noundef %2) #1 {
  %4 = alloca ptr, align 8
  %5 = alloca ptr, align 8
  %6 = alloca i32, align 4
  %7 = alloca ptr, align 8
  %8 = alloca float, align 4
  %9 = alloca ptr, align 8
  %10 = alloca i32, align 4
  %11 = alloca ptr, align 8
  %12 = alloca ptr, align 8
  %13 = alloca i32, align 4
  store ptr %0, ptr %4, align 8, !tbaa !4
  store ptr %1, ptr %5, align 8, !tbaa !73
  store i32 %2, ptr %6, align 4, !tbaa !47
  call void @llvm.lifetime.start.p0(i64 8, ptr %7) #12
  %14 = load ptr, ptr %4, align 8, !tbaa !4
  %15 = getelementptr inbounds nuw %struct.AVFilterContext, ptr %14, i32 0, i32 9
  %16 = load ptr, ptr %15, align 8, !tbaa !9
  store ptr %16, ptr %7, align 8, !tbaa !22
  call void @llvm.lifetime.start.p0(i64 4, ptr %8) #12
  %17 = load ptr, ptr %7, align 8, !tbaa !22
  %18 = getelementptr inbounds nuw %struct.AudioSurroundContext, ptr %17, i32 0, i32 20
  %19 = load ptr, ptr %18, align 8, !tbaa !94
  %20 = load i32, ptr %6, align 4, !tbaa !47
  %21 = sext i32 %20 to i64
  %22 = getelementptr inbounds float, ptr %19, i64 %21
  %23 = load float, ptr %22, align 4, !tbaa !46
  %24 = load ptr, ptr %7, align 8, !tbaa !22
  %25 = getelementptr inbounds nuw %struct.AudioSurroundContext, ptr %24, i32 0, i32 13
  %26 = load float, ptr %25, align 8, !tbaa !55
  %27 = fmul nsz float %23, %26
  store float %27, ptr %8, align 4, !tbaa !46
  call void @llvm.lifetime.start.p0(i64 8, ptr %9) #12
  %28 = load ptr, ptr %7, align 8, !tbaa !22
  %29 = getelementptr inbounds nuw %struct.AudioSurroundContext, ptr %28, i32 0, i32 54
  %30 = load ptr, ptr %29, align 8, !tbaa !43
  store ptr %30, ptr %9, align 8, !tbaa !51
  call void @llvm.lifetime.start.p0(i64 4, ptr %10) #12
  %31 = load ptr, ptr %7, align 8, !tbaa !22
  %32 = getelementptr inbounds nuw %struct.AudioSurroundContext, ptr %31, i32 0, i32 11
  %33 = load i32, ptr %32, align 8, !tbaa !42
  store i32 %33, ptr %10, align 4, !tbaa !47
  call void @llvm.lifetime.start.p0(i64 8, ptr %11) #12
  call void @llvm.lifetime.start.p0(i64 8, ptr %12) #12
  %34 = load ptr, ptr %7, align 8, !tbaa !22
  %35 = getelementptr inbounds nuw %struct.AudioSurroundContext, ptr %34, i32 0, i32 36
  %36 = load ptr, ptr %35, align 8, !tbaa !99
  %37 = getelementptr inbounds nuw %struct.AVFrame, ptr %36, i32 0, i32 2
  %38 = load ptr, ptr %37, align 8, !tbaa !115
  %39 = load i32, ptr %6, align 4, !tbaa !47
  %40 = sext i32 %39 to i64
  %41 = getelementptr inbounds ptr, ptr %38, i64 %40
  %42 = load ptr, ptr %41, align 8, !tbaa !68
  store ptr %42, ptr %11, align 8, !tbaa !51
  %43 = load ptr, ptr %7, align 8, !tbaa !22
  %44 = getelementptr inbounds nuw %struct.AudioSurroundContext, ptr %43, i32 0, i32 37
  %45 = load ptr, ptr %44, align 8, !tbaa !101
  %46 = getelementptr inbounds nuw %struct.AVFrame, ptr %45, i32 0, i32 2
  %47 = load ptr, ptr %46, align 8, !tbaa !115
  %48 = load i32, ptr %6, align 4, !tbaa !47
  %49 = sext i32 %48 to i64
  %50 = getelementptr inbounds ptr, ptr %47, i64 %49
  %51 = load ptr, ptr %50, align 8, !tbaa !68
  store ptr %51, ptr %12, align 8, !tbaa !51
  %52 = load ptr, ptr %7, align 8, !tbaa !22
  %53 = getelementptr inbounds nuw %struct.AudioSurroundContext, ptr %52, i32 0, i32 53
  %54 = load ptr, ptr %53, align 8, !tbaa !181
  %55 = load ptr, ptr %7, align 8, !tbaa !22
  %56 = getelementptr inbounds nuw %struct.AudioSurroundContext, ptr %55, i32 0, i32 51
  %57 = load ptr, ptr %56, align 8, !tbaa !60
  %58 = load i32, ptr %6, align 4, !tbaa !47
  %59 = sext i32 %58 to i64
  %60 = getelementptr inbounds ptr, ptr %57, i64 %59
  %61 = load ptr, ptr %60, align 8, !tbaa !179
  %62 = load ptr, ptr %11, align 8, !tbaa !51
  %63 = load ptr, ptr %7, align 8, !tbaa !22
  %64 = getelementptr inbounds nuw %struct.AudioSurroundContext, ptr %63, i32 0, i32 33
  %65 = load ptr, ptr %64, align 8, !tbaa !100
  %66 = getelementptr inbounds nuw %struct.AVFrame, ptr %65, i32 0, i32 2
  %67 = load ptr, ptr %66, align 8, !tbaa !115
  %68 = load i32, ptr %6, align 4, !tbaa !47
  %69 = sext i32 %68 to i64
  %70 = getelementptr inbounds ptr, ptr %67, i64 %69
  %71 = load ptr, ptr %70, align 8, !tbaa !68
  call void %54(ptr noundef %61, ptr noundef %62, ptr noundef %71, i64 noundef 8)
  %72 = load ptr, ptr %7, align 8, !tbaa !22
  %73 = getelementptr inbounds nuw %struct.AudioSurroundContext, ptr %72, i32 0, i32 37
  %74 = load ptr, ptr %73, align 8, !tbaa !101
  %75 = getelementptr inbounds nuw %struct.AVFrame, ptr %74, i32 0, i32 2
  %76 = load ptr, ptr %75, align 8, !tbaa !115
  %77 = load i32, ptr %6, align 4, !tbaa !47
  %78 = sext i32 %77 to i64
  %79 = getelementptr inbounds ptr, ptr %76, i64 %78
  %80 = load ptr, ptr %79, align 8, !tbaa !68
  %81 = load ptr, ptr %7, align 8, !tbaa !22
  %82 = getelementptr inbounds nuw %struct.AudioSurroundContext, ptr %81, i32 0, i32 37
  %83 = load ptr, ptr %82, align 8, !tbaa !101
  %84 = getelementptr inbounds nuw %struct.AVFrame, ptr %83, i32 0, i32 2
  %85 = load ptr, ptr %84, align 8, !tbaa !115
  %86 = load i32, ptr %6, align 4, !tbaa !47
  %87 = sext i32 %86 to i64
  %88 = getelementptr inbounds ptr, ptr %85, i64 %87
  %89 = load ptr, ptr %88, align 8, !tbaa !68
  %90 = load ptr, ptr %7, align 8, !tbaa !22
  %91 = getelementptr inbounds nuw %struct.AudioSurroundContext, ptr %90, i32 0, i32 49
  %92 = load i32, ptr %91, align 4, !tbaa !50
  %93 = sext i32 %92 to i64
  %94 = mul i64 %93, 4
  %95 = getelementptr inbounds nuw i8, ptr %89, i64 %94
  %96 = load ptr, ptr %7, align 8, !tbaa !22
  %97 = getelementptr inbounds nuw %struct.AudioSurroundContext, ptr %96, i32 0, i32 11
  %98 = load i32, ptr %97, align 8, !tbaa !42
  %99 = sext i32 %98 to i64
  %100 = mul i64 %99, 4
  call void @llvm.memmove.p0.p0.i64(ptr align 1 %80, ptr align 1 %95, i64 %100, i1 false)
  %101 = load ptr, ptr %7, align 8, !tbaa !22
  %102 = getelementptr inbounds nuw %struct.AudioSurroundContext, ptr %101, i32 0, i32 37
  %103 = load ptr, ptr %102, align 8, !tbaa !101
  %104 = getelementptr inbounds nuw %struct.AVFrame, ptr %103, i32 0, i32 2
  %105 = load ptr, ptr %104, align 8, !tbaa !115
  %106 = load i32, ptr %6, align 4, !tbaa !47
  %107 = sext i32 %106 to i64
  %108 = getelementptr inbounds ptr, ptr %105, i64 %107
  %109 = load ptr, ptr %108, align 8, !tbaa !68
  %110 = load ptr, ptr %7, align 8, !tbaa !22
  %111 = getelementptr inbounds nuw %struct.AudioSurroundContext, ptr %110, i32 0, i32 11
  %112 = load i32, ptr %111, align 8, !tbaa !42
  %113 = sext i32 %112 to i64
  %114 = mul i64 %113, 4
  %115 = getelementptr inbounds nuw i8, ptr %109, i64 %114
  %116 = load ptr, ptr %7, align 8, !tbaa !22
  %117 = getelementptr inbounds nuw %struct.AudioSurroundContext, ptr %116, i32 0, i32 49
  %118 = load i32, ptr %117, align 4, !tbaa !50
  %119 = sext i32 %118 to i64
  %120 = mul i64 %119, 4
  call void @llvm.memset.p0.i64(ptr align 1 %115, i8 0, i64 %120, i1 false)
  call void @llvm.lifetime.start.p0(i64 4, ptr %13) #12
  store i32 0, ptr %13, align 4, !tbaa !47
  br label %121

121:                                              ; preds = %145, %3
  %122 = load i32, ptr %13, align 4, !tbaa !47
  %123 = load i32, ptr %10, align 4, !tbaa !47
  %124 = icmp slt i32 %122, %123
  br i1 %124, label %126, label %125

125:                                              ; preds = %121
  call void @llvm.lifetime.end.p0(i64 4, ptr %13) #12
  br label %148

126:                                              ; preds = %121
  %127 = load ptr, ptr %11, align 8, !tbaa !51
  %128 = load i32, ptr %13, align 4, !tbaa !47
  %129 = sext i32 %128 to i64
  %130 = getelementptr inbounds float, ptr %127, i64 %129
  %131 = load float, ptr %130, align 4, !tbaa !46
  %132 = load ptr, ptr %9, align 8, !tbaa !51
  %133 = load i32, ptr %13, align 4, !tbaa !47
  %134 = sext i32 %133 to i64
  %135 = getelementptr inbounds float, ptr %132, i64 %134
  %136 = load float, ptr %135, align 4, !tbaa !46
  %137 = fmul nsz float %131, %136
  %138 = load float, ptr %8, align 4, !tbaa !46
  %139 = load ptr, ptr %12, align 8, !tbaa !51
  %140 = load i32, ptr %13, align 4, !tbaa !47
  %141 = sext i32 %140 to i64
  %142 = getelementptr inbounds float, ptr %139, i64 %141
  %143 = load float, ptr %142, align 4, !tbaa !46
  %144 = call nsz float @llvm.fmuladd.f32(float %137, float %138, float %143)
  store float %144, ptr %142, align 4, !tbaa !46
  br label %145

145:                                              ; preds = %126
  %146 = load i32, ptr %13, align 4, !tbaa !47
  %147 = add nsw i32 %146, 1
  store i32 %147, ptr %13, align 4, !tbaa !47
  br label %121, !llvm.loop !182

148:                                              ; preds = %125
  %149 = load ptr, ptr %7, align 8, !tbaa !22
  %150 = getelementptr inbounds nuw %struct.AudioSurroundContext, ptr %149, i32 0, i32 37
  %151 = load ptr, ptr %150, align 8, !tbaa !101
  %152 = getelementptr inbounds nuw %struct.AVFrame, ptr %151, i32 0, i32 2
  %153 = load ptr, ptr %152, align 8, !tbaa !115
  %154 = load i32, ptr %6, align 4, !tbaa !47
  %155 = sext i32 %154 to i64
  %156 = getelementptr inbounds ptr, ptr %153, i64 %155
  %157 = load ptr, ptr %156, align 8, !tbaa !68
  store ptr %157, ptr %12, align 8, !tbaa !51
  %158 = load ptr, ptr %5, align 8, !tbaa !73
  %159 = getelementptr inbounds nuw %struct.AVFrame, ptr %158, i32 0, i32 2
  %160 = load ptr, ptr %159, align 8, !tbaa !115
  %161 = load i32, ptr %6, align 4, !tbaa !47
  %162 = sext i32 %161 to i64
  %163 = getelementptr inbounds ptr, ptr %160, i64 %162
  %164 = load ptr, ptr %163, align 8, !tbaa !68
  store ptr %164, ptr %11, align 8, !tbaa !51
  %165 = load ptr, ptr %11, align 8, !tbaa !51
  %166 = load ptr, ptr %12, align 8, !tbaa !51
  %167 = load ptr, ptr %7, align 8, !tbaa !22
  %168 = getelementptr inbounds nuw %struct.AudioSurroundContext, ptr %167, i32 0, i32 49
  %169 = load i32, ptr %168, align 4, !tbaa !50
  %170 = sext i32 %169 to i64
  %171 = mul i64 %170, 4
  call void @llvm.memcpy.p0.p0.i64(ptr align 4 %165, ptr align 4 %166, i64 %171, i1 false)
  call void @llvm.lifetime.end.p0(i64 8, ptr %12) #12
  call void @llvm.lifetime.end.p0(i64 8, ptr %11) #12
  call void @llvm.lifetime.end.p0(i64 4, ptr %10) #12
  call void @llvm.lifetime.end.p0(i64 8, ptr %9) #12
  call void @llvm.lifetime.end.p0(i64 4, ptr %8) #12
  call void @llvm.lifetime.end.p0(i64 8, ptr %7) #12
  ret i32 0
}

; Function Attrs: nounwind uwtable
define internal i32 @ifft_channels(ptr noundef %0, ptr noundef %1, i32 noundef %2, i32 noundef %3) #1 {
  %5 = alloca ptr, align 8
  %6 = alloca ptr, align 8
  %7 = alloca i32, align 4
  %8 = alloca i32, align 4
  %9 = alloca ptr, align 8
  %10 = alloca ptr, align 8
  %11 = alloca i32, align 4
  %12 = alloca i32, align 4
  %13 = alloca i32, align 4
  store ptr %0, ptr %5, align 8, !tbaa !4
  store ptr %1, ptr %6, align 8, !tbaa !173
  store i32 %2, ptr %7, align 4, !tbaa !47
  store i32 %3, ptr %8, align 4, !tbaa !47
  call void @llvm.lifetime.start.p0(i64 8, ptr %9) #12
  %14 = load ptr, ptr %5, align 8, !tbaa !4
  %15 = getelementptr inbounds nuw %struct.AVFilterContext, ptr %14, i32 0, i32 9
  %16 = load ptr, ptr %15, align 8, !tbaa !9
  store ptr %16, ptr %9, align 8, !tbaa !22
  call void @llvm.lifetime.start.p0(i64 8, ptr %10) #12
  %17 = load ptr, ptr %6, align 8, !tbaa !173
  store ptr %17, ptr %10, align 8, !tbaa !73
  call void @llvm.lifetime.start.p0(i64 4, ptr %11) #12
  %18 = load ptr, ptr %10, align 8, !tbaa !73
  %19 = getelementptr inbounds nuw %struct.AVFrame, ptr %18, i32 0, i32 37
  %20 = getelementptr inbounds nuw %struct.AVChannelLayout, ptr %19, i32 0, i32 1
  %21 = load i32, ptr %20, align 4, !tbaa !174
  %22 = load i32, ptr %7, align 4, !tbaa !47
  %23 = mul nsw i32 %21, %22
  %24 = load i32, ptr %8, align 4, !tbaa !47
  %25 = sdiv i32 %23, %24
  store i32 %25, ptr %11, align 4, !tbaa !47
  call void @llvm.lifetime.start.p0(i64 4, ptr %12) #12
  %26 = load ptr, ptr %10, align 8, !tbaa !73
  %27 = getelementptr inbounds nuw %struct.AVFrame, ptr %26, i32 0, i32 37
  %28 = getelementptr inbounds nuw %struct.AVChannelLayout, ptr %27, i32 0, i32 1
  %29 = load i32, ptr %28, align 4, !tbaa !174
  %30 = load i32, ptr %7, align 4, !tbaa !47
  %31 = add nsw i32 %30, 1
  %32 = mul nsw i32 %29, %31
  %33 = load i32, ptr %8, align 4, !tbaa !47
  %34 = sdiv i32 %32, %33
  store i32 %34, ptr %12, align 4, !tbaa !47
  call void @llvm.lifetime.start.p0(i64 4, ptr %13) #12
  %35 = load i32, ptr %11, align 4, !tbaa !47
  store i32 %35, ptr %13, align 4, !tbaa !47
  br label %36

36:                                               ; preds = %57, %4
  %37 = load i32, ptr %13, align 4, !tbaa !47
  %38 = load i32, ptr %12, align 4, !tbaa !47
  %39 = icmp slt i32 %37, %38
  br i1 %39, label %41, label %40

40:                                               ; preds = %36
  call void @llvm.lifetime.end.p0(i64 4, ptr %13) #12
  br label %60

41:                                               ; preds = %36
  %42 = load ptr, ptr %9, align 8, !tbaa !22
  %43 = getelementptr inbounds nuw %struct.AudioSurroundContext, ptr %42, i32 0, i32 56
  %44 = load ptr, ptr %43, align 8, !tbaa !39
  %45 = icmp ne ptr %44, null
  br i1 %45, label %46, label %52

46:                                               ; preds = %41
  %47 = load ptr, ptr %9, align 8, !tbaa !22
  %48 = getelementptr inbounds nuw %struct.AudioSurroundContext, ptr %47, i32 0, i32 56
  %49 = load ptr, ptr %48, align 8, !tbaa !39
  %50 = load ptr, ptr %5, align 8, !tbaa !4
  %51 = load i32, ptr %13, align 4, !tbaa !47
  call void %49(ptr noundef %50, i32 noundef %51)
  br label %52

52:                                               ; preds = %46, %41
  %53 = load ptr, ptr %5, align 8, !tbaa !4
  %54 = load ptr, ptr %10, align 8, !tbaa !73
  %55 = load i32, ptr %13, align 4, !tbaa !47
  %56 = call i32 @ifft_channel(ptr noundef %53, ptr noundef %54, i32 noundef %55)
  br label %57

57:                                               ; preds = %52
  %58 = load i32, ptr %13, align 4, !tbaa !47
  %59 = add nsw i32 %58, 1
  store i32 %59, ptr %13, align 4, !tbaa !47
  br label %36, !llvm.loop !176

60:                                               ; preds = %40
  call void @llvm.lifetime.end.p0(i64 4, ptr %12) #12
  call void @llvm.lifetime.end.p0(i64 4, ptr %11) #12
  call void @llvm.lifetime.end.p0(i64 8, ptr %10) #12
  call void @llvm.lifetime.end.p0(i64 8, ptr %9) #12
  ret i32 0
}