; Function Attrs: nounwind uwtable
define internal noundef i32 @ifft_channels(ptr noundef %0, ptr noundef readonly captures(none) %1, i32 noundef %2, i32 noundef %3) #1 {
  %5 = getelementptr inbounds nuw i8, ptr %0, i64 72
  %6 = getelementptr inbounds nuw i8, ptr %1, i64 388
  %7 = load i32, ptr %6, align 4, !tbaa !166
  %8 = mul nsw i32 %7, %2
  %9 = sdiv i32 %8, %3
  %10 = add nsw i32 %2, 1
  %11 = mul nsw i32 %7, %10
  %12 = sdiv i32 %11, %3
  %13 = icmp slt i32 %9, %12
  br i1 %13, label %.lr.ph, label %._crit_edge

.lr.ph:                                           ; preds = %4
  %14 = load ptr, ptr %5, align 8, !tbaa !4
  %15 = getelementptr inbounds nuw i8, ptr %14, i64 504
  %16 = getelementptr inbounds nuw i8, ptr %1, i64 96
  %17 = sext i32 %9 to i64
  br label %18

._crit_edge:                                      ; preds = %ifft_channel.exit, %4
  ret i32 0

18:                                               ; preds = %.lr.ph, %ifft_channel.exit
  %indvars.iv = phi i64 [ %17, %.lr.ph ], [ %indvars.iv.next, %ifft_channel.exit ]
  %19 = load ptr, ptr %15, align 8, !tbaa !172
  %.not = icmp eq ptr %19, null
  br i1 %.not, label %22, label %20

20:                                               ; preds = %18
  %21 = trunc nsw i64 %indvars.iv to i32
  tail call void %19(ptr noundef nonnull %0, i32 noundef %21) #14
  br label %22

22:                                               ; preds = %20, %18
  %.val = load ptr, ptr %5, align 8, !tbaa !4
  %23 = getelementptr inbounds nuw i8, ptr %.val, i64 256
  %24 = load ptr, ptr %23, align 8, !tbaa !89
  %25 = getelementptr inbounds float, ptr %24, i64 %indvars.iv
  %26 = load float, ptr %25, align 4, !tbaa !37
  %27 = getelementptr inbounds nuw i8, ptr %.val, i64 160
  %28 = load float, ptr %27, align 8, !tbaa !67
  %29 = fmul nsz float %26, %28
  %30 = getelementptr inbounds nuw i8, ptr %.val, i64 488
  %31 = load ptr, ptr %30, align 8, !tbaa !35
  %32 = getelementptr inbounds nuw i8, ptr %.val, i64 152
  %33 = load i32, ptr %32, align 8, !tbaa !34
  %34 = getelementptr inbounds nuw i8, ptr %.val, i64 352
  %35 = load ptr, ptr %34, align 8, !tbaa !125
  %36 = getelementptr inbounds nuw i8, ptr %35, i64 96
  %37 = load ptr, ptr %36, align 8, !tbaa !138
  %38 = getelementptr inbounds ptr, ptr %37, i64 %indvars.iv
  %39 = load ptr, ptr %38, align 8, !tbaa !139
  %40 = getelementptr inbounds nuw i8, ptr %.val, i64 360
  %41 = load ptr, ptr %40, align 8, !tbaa !127
  %42 = getelementptr inbounds nuw i8, ptr %41, i64 96
  %43 = load ptr, ptr %42, align 8, !tbaa !138
  %44 = getelementptr inbounds ptr, ptr %43, i64 %indvars.iv
  %45 = load ptr, ptr %44, align 8, !tbaa !139
  %46 = getelementptr inbounds nuw i8, ptr %.val, i64 480
  %47 = load ptr, ptr %46, align 8, !tbaa !173
  %48 = getelementptr inbounds nuw i8, ptr %.val, i64 464
  %49 = load ptr, ptr %48, align 8, !tbaa !77
  %50 = getelementptr inbounds ptr, ptr %49, i64 %indvars.iv
  %51 = load ptr, ptr %50, align 8, !tbaa !169
  %52 = getelementptr inbounds nuw i8, ptr %.val, i64 328
  %53 = load ptr, ptr %52, align 8, !tbaa !126
  %54 = getelementptr inbounds nuw i8, ptr %53, i64 96
  %55 = load ptr, ptr %54, align 8, !tbaa !138
  %56 = getelementptr inbounds ptr, ptr %55, i64 %indvars.iv
  %57 = load ptr, ptr %56, align 8, !tbaa !139
  tail call void %47(ptr noundef %51, ptr noundef %39, ptr noundef %57, i64 noundef 8) #14
  %58 = load ptr, ptr %40, align 8, !tbaa !127
  %59 = getelementptr inbounds nuw i8, ptr %58, i64 96
  %60 = load ptr, ptr %59, align 8, !tbaa !138
  %61 = getelementptr inbounds ptr, ptr %60, i64 %indvars.iv
  %62 = load ptr, ptr %61, align 8, !tbaa !139
  %63 = getelementptr inbounds nuw i8, ptr %.val, i64 452
  %64 = load i32, ptr %63, align 4, !tbaa !62
  %65 = sext i32 %64 to i64
  %66 = shl nsw i64 %65, 2
  %67 = getelementptr inbounds nuw i8, ptr %62, i64 %66
  %68 = load i32, ptr %32, align 8, !tbaa !34
  %69 = sext i32 %68 to i64
  %70 = shl nsw i64 %69, 2
  tail call void @llvm.memmove.p0.p0.i64(ptr align 1 %62, ptr align 1 %67, i64 %70, i1 false)
  %71 = load ptr, ptr %40, align 8, !tbaa !127
  %72 = getelementptr inbounds nuw i8, ptr %71, i64 96
  %73 = load ptr, ptr %72, align 8, !tbaa !138
  %74 = getelementptr inbounds ptr, ptr %73, i64 %indvars.iv
  %75 = load ptr, ptr %74, align 8, !tbaa !139
  %76 = load i32, ptr %32, align 8, !tbaa !34
  %77 = sext i32 %76 to i64
  %78 = shl nsw i64 %77, 2
  %79 = getelementptr inbounds nuw i8, ptr %75, i64 %78
  %80 = load i32, ptr %63, align 4, !tbaa !62
  %81 = sext i32 %80 to i64
  %82 = shl nsw i64 %81, 2
  tail call void @llvm.memset.p0.i64(ptr align 1 %79, i8 0, i64 %82, i1 false)
  %83 = icmp sgt i32 %33, 0
  br i1 %83, label %.lr.ph.preheader.i, label %ifft_channel.exit

.lr.ph.preheader.i:                               ; preds = %22
  %wide.trip.count.i = zext nneg i32 %33 to i64
  br label %.lr.ph.i

.lr.ph.i:                                         ; preds = %.lr.ph.i, %.lr.ph.preheader.i
  %indvars.iv.i = phi i64 [ 0, %.lr.ph.preheader.i ], [ %indvars.iv.next.i, %.lr.ph.i ]
  %84 = getelementptr inbounds nuw float, ptr %39, i64 %indvars.iv.i
  %85 = load float, ptr %84, align 4, !tbaa !37
  %86 = getelementptr inbounds nuw float, ptr %31, i64 %indvars.iv.i
  %87 = load float, ptr %86, align 4, !tbaa !37
  %88 = fmul nsz float %85, %87
  %89 = getelementptr inbounds nuw float, ptr %45, i64 %indvars.iv.i
  %90 = load float, ptr %89, align 4, !tbaa !37
  %91 = tail call nsz float @llvm.fmuladd.f32(float %88, float %29, float %90)
  store float %91, ptr %89, align 4, !tbaa !37
  %indvars.iv.next.i = add nuw nsw i64 %indvars.iv.i, 1
  %exitcond.not.i = icmp eq i64 %indvars.iv.next.i, %wide.trip.count.i
  br i1 %exitcond.not.i, label %ifft_channel.exit, label %.lr.ph.i, !llvm.loop !174

ifft_channel.exit:                                ; preds = %.lr.ph.i, %22
  %92 = load ptr, ptr %40, align 8, !tbaa !127
  %93 = getelementptr inbounds nuw i8, ptr %92, i64 96
  %94 = load ptr, ptr %93, align 8, !tbaa !138
  %95 = getelementptr inbounds ptr, ptr %94, i64 %indvars.iv
  %96 = load ptr, ptr %95, align 8, !tbaa !139
  %97 = load ptr, ptr %16, align 8, !tbaa !138
  %98 = getelementptr inbounds ptr, ptr %97, i64 %indvars.iv
  %99 = load ptr, ptr %98, align 8, !tbaa !139
  %100 = load i32, ptr %63, align 4, !tbaa !62
  %101 = sext i32 %100 to i64
  %102 = shl nsw i64 %101, 2
  tail call void @llvm.memcpy.p0.p0.i64(ptr align 4 %99, ptr align 4 %96, i64 %102, i1 false)
  %indvars.iv.next = add nsw i64 %indvars.iv, 1
  %lftr.wideiv = trunc i64 %indvars.iv.next to i32
  %exitcond.not = icmp eq i32 %12, %lftr.wideiv
  br i1 %exitcond.not, label %._crit_edge, label %18, !llvm.loop !175
}